target datalayout = "e-m:e-p270:32:32-p271:32:32-p272:64:64-i64:64-i128:128-f80:128-n8:16:32:64-S128"
target triple = "x86_64-pc-linux-gnu"

%"struct.duckdb_zstd::COVER_ctx_t" = type { ptr, ptr, ptr, i64, i64, i64, ptr, i64, ptr, ptr, i32 }

; Function Attrs: mustprogress nounwind uwtable
define internal noundef i32 @_ZN11duckdb_zstdL9COVER_cmpEPNS_11COVER_ctx_tEPKvS3_(ptr noundef %0, ptr noundef %1, ptr noundef %2) #0 {
  %4 = alloca ptr, align 8
  %5 = alloca ptr, align 8
  %6 = alloca ptr, align 8
  %7 = alloca i32, align 4
  %8 = alloca i32, align 4
  store ptr %0, ptr %4, align 8, !tbaa !21
  store ptr %1, ptr %5, align 8, !tbaa !21
  store ptr %2, ptr %6, align 8, !tbaa !21
  call void @llvm.lifetime.start.p0(i64 4, ptr %7) #12
  %9 = load ptr, ptr %5, align 8, !tbaa !21
  %10 = load i32, ptr %9, align 4, !tbaa !8
  store i32 %10, ptr %7, align 4, !tbaa !8
  call void @llvm.lifetime.start.p0(i64 4, ptr %8) #12
  %11 = load ptr, ptr %6, align 8, !tbaa !21
  %12 = load i32, ptr %11, align 4, !tbaa !8
  store i32 %12, ptr %8, align 4, !tbaa !8
  %13 = load ptr, ptr %4, align 8, !tbaa !21
  %14 = getelementptr inbounds nuw %"struct.duckdb_zstd::COVER_ctx_t", ptr %13, i32 0, i32 0
  %15 = load ptr, ptr %14, align 8, !tbaa !36
  %16 = load i32, ptr %7, align 4, !tbaa !8
  %17 = zext i32 %16 to i64
  %18 = getelementptr inbounds nuw i8, ptr %15, i64 %17
  %19 = load ptr, ptr %4, align 8, !tbaa !21
  %20 = getelementptr inbounds nuw %"struct.duckdb_zstd::COVER_ctx_t", ptr %19, i32 0, i32 0
  %21 = load ptr, ptr %20, align 8, !tbaa !36
  %22 = load i32, ptr %8, align 4, !tbaa !8
  %23 = zext i32 %22 to i64
  %24 = getelementptr inbounds nuw i8, ptr %21, i64 %23
  %25 = load ptr, ptr %4, align 8, !tbaa !21
  %26 = getelementptr inbounds nuw %"struct.duckdb_zstd::COVER_ctx_t", ptr %25, i32 0, i32 10
  %27 = load i32, ptr %26, align 8, !tbaa !44
  %28 = zext i32 %27 to i64
  %29 = call i32 @memcmp(ptr noundef %18, ptr noundef %24, i64 noundef %28) #14
  call void @llvm.lifetime.end.p0(i64 4, ptr %8) #12
  call void @llvm.lifetime.end.p0(i64 4, ptr %7) #12
  ret i32 %29
}